; Function Attrs: mustprogress nounwind uwtable
define dso_local noundef i32 @_ZNK4llvm3pdb22NativeSymbolEnumerator9getTypeIdEv(ptr nocapture noundef nonnull readonly align 8 dereferenceable(72) %0) unnamed_addr #0 align 2 {
  %2 = getelementptr inbounds nuw i8, ptr %0, i64 24
  %3 = load ptr, ptr %2, align 8
  %4 = load ptr, ptr %3, align 8
  %5 = getelementptr inbounds i8, ptr %4, i64 592
  %6 = load ptr, ptr %5, align 8
  %7 = tail call noundef i32 %6(ptr noundef nonnull align 8 dereferenceable(114) %3) #7
  ret i32 %7
}